; Function Attrs: mustprogress uwtable
define hidden { ptr, ptr } @_ZN10bit_matrix7add_rowEv(ptr noundef nonnull align 8 dereferenceable(56) %0) local_unnamed_addr #6 align 2 {
  %2 = getelementptr inbounds nuw i8, ptr %0, i64 44
  %3 = load i32, ptr %2, align 4, !tbaa !34
  %4 = zext i32 %3 to i64
  %5 = shl nuw nsw i64 %4, 3
  %6 = tail call noundef ptr @_ZN6region8allocateEm(ptr noundef nonnull align 8 dereferenceable(40) %0, i64 noundef %5)
  %7 = getelementptr inbounds nuw i8, ptr %0, i64 48
  %8 = load ptr, ptr %7, align 8, !tbaa !32
  %9 = icmp eq ptr %8, null
  br i1 %9, label %16, label %10

10:                                               ; preds = %1
  %11 = getelementptr inbounds i8, ptr %8, i64 -4
  %12 = load i32, ptr %11, align 4, !tbaa !33
  %13 = getelementptr inbounds i8, ptr %8, i64 -8
  %14 = load i32, ptr %13, align 4, !tbaa !33
  %15 = icmp eq i32 %12, %14
  br i1 %15, label %16, label %_ZN6vectorIPmLb0EjE9push_backERKS0_.exit

16:                                               ; preds = %10, %1
  tail call void @_ZN6vectorIPmLb0EjE13expand_vectorEv(ptr noundef nonnull align 8 dereferenceable(8) %7)
  %.pre.i = load ptr, ptr %7, align 8, !tbaa !32
  %.phi.trans.insert.i = getelementptr inbounds i8, ptr %.pre.i, i64 -4
  %.pre2.i = load i32, ptr %.phi.trans.insert.i, align 4, !tbaa !33
  br label %_ZN6vectorIPmLb0EjE9push_backERKS0_.exit

_ZN6vectorIPmLb0EjE9push_backERKS0_.exit:         ; preds = %10, %16
  %17 = phi i32 [ %.pre2.i, %16 ], [ %12, %10 ]
  %18 = phi ptr [ %.pre.i, %16 ], [ %8, %10 ]
  %19 = getelementptr inbounds i8, ptr %18, i64 -4
  %20 = zext i32 %17 to i64
  %21 = getelementptr inbounds nuw ptr, ptr %18, i64 %20
  store ptr %6, ptr %21, align 8, !tbaa !9
  %22 = add i32 %17, 1
  store i32 %22, ptr %19, align 4, !tbaa !33
  %23 = load i32, ptr %2, align 4, !tbaa !34
  %24 = zext i32 %23 to i64
  %25 = shl nuw nsw i64 %24, 3
  tail call void @llvm.memset.p0.i64(ptr align 8 %6, i8 0, i64 %25, i1 false)
  %.fca.0.insert = insertvalue { ptr, ptr } poison, ptr %0, 0
  %.fca.1.insert = insertvalue { ptr, ptr } %.fca.0.insert, ptr %6, 1
  ret { ptr, ptr } %.fca.1.insert
}